(dp1
S'output'
p2
S"<type 'exceptions.NameError'> name 'pages' is not defined"
p3
sS'layer'
p4
S'/Users/bola/Desktop/web2py/applications/mywiki/views/default/index.html'
p5
sS'code'
p6
S'response.write(\'<!DOCTYPE html>\\n<!--[if (gt IE 9)|!(IE)]><!--> <html class="no-js" lang="\', escape=False)\nresponse.write(T.accepted_language or \'en\')\nresponse.write(\'"> <!--<![endif]-->\\n  <head>\\n    <meta charset="utf-8">\\n    <!-- www.phpied.com/conditional-comments-block-downloads/ -->\\n    <!-- Always force latest IE rendering engine\\n         (even in intranet) & Chrome Frame\\n         Remove this if you use the .htaccess -->\\n    <meta http-equiv="X-UA-Compatible" content="IE=edge\', escape=False)\nresponse.write(not request.is_local and \',chrome=1\' or \'\')\nresponse.write(\'">\\n    <!--  Mobile Viewport Fix\\n          j.mp/mobileviewport & davidbcalhoun.com/2010/viewport-metatag\\n          device-width: Occupy full width of the screen in its current orientation\\n          initial-scale = 1.0 retains dimensions instead of zooming out if page height > device height\\n          user-scalable = yes allows the user to zoom in -->\\n    <meta name="viewport" content="width=device-width, initial-scale=1.0">\\n    <title>\', escape=False)\nresponse.write(response.title or request.application)\nresponse.write(\'</title>\\n    <!-- http://dev.w3.org/html5/markup/meta.name.html -->\\n    <meta name="application-name" content="\', escape=False)\nresponse.write(request.application)\nresponse.write(\'">\\n    <!-- Speaking of Google, don\\\'t forget to set your site up:\\n         http://google.com/webmasters -->\\n    <meta name="google-site-verification" content="">\\n    <!-- include stylesheets -->\\n    <link rel="stylesheet" href="https://cdnjs.cloudflare.com/ajax/libs/font-awesome/4.7.0/css/font-awesome.min.css"/>\\n    <link rel="stylesheet" href="\', escape=False)\nresponse.write(URL(\'static\',\'css/bootstrap.min.css\'))\nresponse.write(\'"/>\\n    <link rel="stylesheet" href="\', escape=False)\nresponse.write(URL(\'static\',\'css/web2py-bootstrap4.css\'))\nresponse.write(\'"/>\\n    <link rel="shortcut icon" href="\', escape=False)\nresponse.write(URL(\'static\',\'images/favicon.ico\'))\nresponse.write(\'" type="image/x-icon">\\n    <link rel="apple-touch-icon" href="\', escape=False)\nresponse.write(URL(\'static\',\'images/favicon.png\'))\nresponse.write(\'">\\n    <!-- All JavaScript at the bottom, except for Modernizr which enables\\n         HTML5 elements & feature detects -->\\n    <script src="\', escape=False)\nresponse.write(URL(\'static\',\'js/modernizr-2.8.3.min.js\'))\nresponse.write(\'"></script>\\n    <!-- Favicons -->\\n    \', escape=False)\nresponse.write(\'<script type="text/javascript"><!--\\n    // These variables are used by the web2py_ajax_init function in web2py_ajax.js (which is loaded below).\\n    \', escape=False)\nresponse.write(ASSIGNJS(\nw2p_ajax_confirm_message = T(\'Are you sure you want to delete this object?\'),\nw2p_ajax_disable_with_message = T(\'Working...\'),\nw2p_ajax_date_format = T(\'%Y-%m-%d\'),\nw2p_ajax_datetime_format = T(\'%Y-%m-%d %H:%M:%S\'),\najax_error_500 = T.M(\'An error occured, please [[reload %s]] the page\') % URL(args=request.args, vars=request.get_vars)\n))\nresponse.write(\'\\n    //--></script>\\n\', escape=False)\nresponse.files.insert(0,URL(\'static\',\'js/jquery.js\'))\nresponse.files.insert(1,URL(\'static\',\'css/calendar.css\'))\nresponse.files.insert(2,URL(\'static\',\'js/calendar.js\'))\nresponse.files.insert(3,URL(\'static\',\'js/web2py.js\'))\nresponse.include_meta()\nresponse.include_files()\nresponse.write(\'\\n\', escape=False)\nresponse.write(\' <!-- this includes jquery.js, calendar.js/.css and web2py.js -->\\n    \', escape=False)\nresponse.write(\'\\n  </head>\\n  <body>\\n    <div class="w2p_flash alert alert-dismissable">\', escape=False)\nresponse.write(response.flash or \'\')\nresponse.write(\'</div>\\n    <!-- Navbar ======================================= -->\\n    <nav class="navbar navbar-light navbar-expand-md bg-faded justify-content-center">\\n       <a href="http://web2py.com" class="navbar-brand d-flex w-50 mr-auto">web2py</a>\\n       <button class="navbar-toggler" type="button" data-toggle="collapse" data-target="#navbarNavDropdown" aria-controls="navbarNavDropdown" aria-expanded="false" aria-label="Toggle navigation">\\n         <span class="navbar-toggler-icon"></span>\\n       </button>\\n       <div class="navbar-collapse collapse w-100" id="navbarNavDropdown">\\n         <ul class="navbar-nav w-100 justify-content-center">\\n          \', escape=False)\nfor _item in response.menu or []:\n    response.write(\'\\n          \', escape=False)\n    if len(_item)<4 or not _item[3]:\n        response.write(\'\\n          <li class="nav-item \', escape=False)\n        if _item[1]:\n            response.write(\'active\', escape=False)\n            pass\n        response.write(\'">\\n            <a class="nav-link" href="\', escape=False)\n        response.write(_item[2])\n        response.write(\'">\', escape=False)\n        response.write(_item[0])\n        response.write(\'</a>\\n          </li>\\n          \', escape=False)\n    else:\n        response.write(\'\\n          <li class="nav-item dropdown">\\n            <a class="nav-link dropdown-toggle" href="\', escape=False)\n        response.write(_item[2])\n        response.write(\'" data-toggle="dropdown" aria-haspopup="true" aria-expanded="false">\', escape=False)\n        response.write(_item[0])\n        response.write(\'</a>\\n            <div class="dropdown-menu">\\n              \', escape=False)\n        for _subitem in _item[3]:\n            response.write(\'\\n              <a class="dropdown-item" href="\', escape=False)\n            response.write(_subitem[2])\n            response.write(\'">\', escape=False)\n            response.write(_subitem[0])\n            response.write(\'</a>\\n              \', escape=False)\n            pass\n        response.write(\'\\n            </div>\\n          </li>\\n          \', escape=False)\n        pass\n    response.write(\'\\n          \', escape=False)\n    pass\nresponse.write(\'\\n        </ul>\\n         <form class="form-inline my-2 my-lg-0">\\n             <input class="form-control mr-sm-2" type="text" placeholder="Search">\\n         </form>\\n        \', escape=False)\nif \'auth\' in globals():\n    response.write(\'\\n        <ul class="nav navbar-nav ml-auto w-100 justify-content-end">\\n          <li class="nav-item dropdown">\\n            <a class="nav-link dropdown-toggle" href="#" data-toggle="dropdown" aria-haspopup="true" aria-expanded="false">\\n              \', escape=False)\n    if auth.user:\n        response.write(auth.user.first_name)\n    else:\n        response.write(\'LOGIN\', escape=False)\n        pass\n    response.write(\'\\n            </a>\\n            <div class="dropdown-menu dropdown-menu-right">\\n              \', escape=False)\n    if auth.user:\n        response.write(\'\\n              <a class="dropdown-item" href="\', escape=False)\n        response.write(URL(\'default\',\'user/profile\'))\n        response.write(\'">\', escape=False)\n        response.write(T(\'Profile\'))\n        response.write(\'</a>\\n              \', escape=False)\n        if \'change_password\' not in auth.settings.actions_disabled:\n            response.write(\'\\n              <a class="dropdown-item" href="\', escape=False)\n            response.write(URL(\'default\',\'user/change_password\'))\n            response.write(\'">\', escape=False)\n            response.write(T(\'Change Password\'))\n            response.write(\'</a>\\n              \', escape=False)\n            pass\n        response.write(\'\\n              <a class="dropdown-item" href="\', escape=False)\n        response.write(URL(\'default\',\'user/logout\'))\n        response.write(\'">\', escape=False)\n        response.write(T(\'Logout\'))\n        response.write(\'</a>\\n              \', escape=False)\n    else:\n        response.write(\'\\n              <a class="dropdown-item" href="\', escape=False)\n        response.write(URL(\'default\',\'user/login\'))\n        response.write(\'">\', escape=False)\n        response.write(T(\'Login\'))\n        response.write(\'</a>\\n              \', escape=False)\n        if \'register\' not in auth.settings.actions_disabled:\n            response.write(\'\\n              <a class="dropdown-item" href="\', escape=False)\n            response.write(URL(\'default\',\'user/register\'))\n            response.write(\'">\', escape=False)\n            response.write(T(\'Sign up\'))\n            response.write(\'</a>\\n              \', escape=False)\n            pass\n        response.write(\'\\n              \', escape=False)\n        if \'retrieve_password\' not in auth.settings.actions_disabled:\n            response.write(\'\\n              <a class="dropdown-item" href="\', escape=False)\n            response.write(URL(\'default\',\'user/retrieve_password\'))\n            response.write(\'">\', escape=False)\n            response.write(T(\'Lost Password\'))\n            response.write(\'</a>\\n              \', escape=False)\n            pass\n        response.write(\'\\n              \', escape=False)\n        pass\n    response.write(\'\\n            </div>\\n          </li>\\n        </ul>\\n        \', escape=False)\n    pass\nresponse.write(\'\\n      </div>\\n    </nav>\\n\\n    <!-- Masthead ===================================== -->\\n    \', escape=False)\nresponse.write(\'\\n    \', escape=False)\nresponse.write(\'\\n    <!-- Main ========================================= -->\\n    <!-- Begin page content -->\\n    <div class="container-fluid main-container">\\n      \', escape=False)\nresponse.write(\'\\n<h1>Available wiki pages</h1>\\n[ \', escape=False)\nresponse.write(A(\'search\', _href=URL(\'search\')))\nresponse.write(\' ]<br />\\n<ul>\', escape=False)\nfor page in pages:\n    response.write(\'\\n    \', escape=False)\n    response.write(LI(A(page.title, _href=URL(\'show\', args=page.id))))\n    response.write(\'\\n\', escape=False)\n    pass\nresponse.write(\'</ul>\\n[ \', escape=False)\nresponse.write(A(\'create page\', _href=URL(\'create\')))\nresponse.write(\' ]\', escape=False)\nresponse.write(\'\\n      \', escape=False)\nresponse.write(response.toolbar() if response.show_toolbar else \'\')\nresponse.write(\'\\n    </div>\\n\\n    \', escape=False)\nresponse.write(\' <!-- this is default footer -->\\n    <footer class="footer container-fluid">\\n      <div class="row">\\n        <div class="col-md-12">\\n          <div class="copyright pull-left">\', escape=False)\nresponse.write(T(\'Copyright\'))\nresponse.write(\' &#169; \', escape=False)\nresponse.write(request.now.year)\nresponse.write(\'</div>\\n          <div id="poweredBy" class="pull-right">\\n            \', escape=False)\nresponse.write(T(\'Powered by\'))\nresponse.write(\'\\n            <a href="http://www.web2py.com/">web2py</a>\\n          </div>\\n        </div>\\n      </div>\\n    </footer>\\n    \', escape=False)\nresponse.write(\'\\n    <!-- The javascript =============================== -->\\n    <script src="\', escape=False)\nresponse.write(URL(\'static\',\'js/bootstrap.bundle.min.js\'))\nresponse.write(\'"></script>\\n    <script src="\', escape=False)\nresponse.write(URL(\'static\',\'js/web2py-bootstrap4.js\'))\nresponse.write(\'"></script>\\n    \', escape=False)\nresponse.write(\'\\n    \', escape=False)\nif response.google_analytics_id:\n    response.write(\'\\n    <!-- Analytics ==================================== -->\\n    <script src="\', escape=False)\n    response.write(URL(\'static\',\'js/analytics.min.js\'))\n    response.write(\'"></script>\\n    <script type="text/javascript">\\n      analytics.initialize({\\n      \\\'Google Analytics\\\':{trackingId:\\\'\', escape=False)\n    response.write(response.google_analytics_id)\n    response.write("\'}\\n      });\\n    </script>\\n    ", escape=False)\n    pass\nresponse.write(\'\\n  </body>\\n</html>\\n\', escape=False)'
p7
sS'snapshot'
p8
(dp9
S'exception'
p10
(dp11
S'__getslice__'
p12
S"<method-wrapper '__getslice__' of exceptions.NameError object>"
p13
sS'__str__'
p14
S"<method-wrapper '__str__' of exceptions.NameError object>"
p15
sS'__reduce__'
p16
S'<built-in method __reduce__ of exceptions.NameError object>'
p17
sS'__dict__'
p18
S'{}'
p19
sS'message'
p20
S'"name \'pages\' is not defined"'
p21
sS'__sizeof__'
p22
S'<built-in method __sizeof__ of exceptions.NameError object>'
p23
sS'__init__'
p24
S"<method-wrapper '__init__' of exceptions.NameError object>"
p25
sS'__setattr__'
p26
S"<method-wrapper '__setattr__' of exceptions.NameError object>"
p27
sS'__reduce_ex__'
p28
S'<built-in method __reduce_ex__ of exceptions.NameError object>'
p29
sS'__new__'
p30
S'<built-in method __new__ of type object>'
p31
sS'__format__'
p32
S'<built-in method __format__ of exceptions.NameError object>'
p33
sS'__class__'
p34
S"<type 'exceptions.NameError'>"
p35
sS'__doc__'
p36
S"'Name not found globally.'"
p37
sS'__getitem__'
p38
S"<method-wrapper '__getitem__' of exceptions.NameError object>"
p39
sS'__setstate__'
p40
S'<built-in method __setstate__ of exceptions.NameError object>'
p41
sS'__getattribute__'
p42
S"<method-wrapper '__getattribute__' of exceptions.NameError object>"
p43
sS'args'
p44
S'("name \'pages\' is not defined",)'
p45
sS'__subclasshook__'
p46
S'<built-in method __subclasshook__ of type object>'
p47
sS'__unicode__'
p48
S'<built-in method __unicode__ of exceptions.NameError object>'
p49
sS'__delattr__'
p50
S"<method-wrapper '__delattr__' of exceptions.NameError object>"
p51
sS'__repr__'
p52
S"<method-wrapper '__repr__' of exceptions.NameError object>"
p53
sS'__hash__'
p54
S"<method-wrapper '__hash__' of exceptions.NameError object>"
p55
ssS'evalue'
p56
S"name 'pages' is not defined"
p57
sS'request'
p58
cgluon.html
XML_unpickle
p59
(S's\x85s\x00\x00<div><table><tr><td style="font-weight:bold;vertical-align:top;">ajax</td><td style="vertical-align:top;">:</td><td><div>False</div></td></tr><tr><td style="font-weight:bold;vertical-align:top;">application</td><td style="vertical-align:top;">:</td><td><div>mywiki</div></td></tr><tr><td style="font-weight:bold;vertical-align:top;">args</td><td style="vertical-align:top;">:</td><td><div><table></table></div></td></tr><tr><td style="font-weight:bold;vertical-align:top;">cid</td><td style="vertical-align:top;">:</td><td><div>None</div></td></tr><tr><td style="font-weight:bold;vertical-align:top;">client</td><td style="vertical-align:top;">:</td><td><div>127.0.0.1</div></td></tr><tr><td style="font-weight:bold;vertical-align:top;">controller</td><td style="vertical-align:top;">:</td><td><div>default</div></td></tr><tr><td style="font-weight:bold;vertical-align:top;">cookies</td><td style="vertical-align:top;">:</td><td><div><table><tr><td style="font-weight:bold;vertical-align:top;">session_id_admin</td><td style="vertical-align:top;">:</td><td><div>127.0.0.1-11653a46-4b12-4204-8169-47774af0a820<table><tr><td style="font-weight:bold;vertical-align:top;">comment</td><td style="vertical-align:top;">:</td><td><div></div></td></tr><tr><td style="font-weight:bold;vertical-align:top;">domain</td><td style="vertical-align:top;">:</td><td><div></div></td></tr><tr><td style="font-weight:bold;vertical-align:top;">expires</td><td style="vertical-align:top;">:</td><td><div></div></td></tr><tr><td style="font-weight:bold;vertical-align:top;">httponly</td><td style="vertical-align:top;">:</td><td><div></div></td></tr><tr><td style="font-weight:bold;vertical-align:top;">max-age</td><td style="vertical-align:top;">:</td><td><div></div></td></tr><tr><td style="font-weight:bold;vertical-align:top;">path</td><td style="vertical-align:top;">:</td><td><div></div></td></tr><tr><td style="font-weight:bold;vertical-align:top;">secure</td><td style="vertical-align:top;">:</td><td><div></div></td></tr><tr><td style="font-weight:bold;vertical-align:top;">version</td><td style="vertical-align:top;">:</td><td><div></div></td></tr></table></div></td></tr><tr><td style="font-weight:bold;vertical-align:top;">session_id_awalsmanagementsystem</td><td style="vertical-align:top;">:</td><td><div>127.0.0.1-ff45e2e6-9d68-4a0e-86d4-1a01c257f4ad<table><tr><td style="font-weight:bold;vertical-align:top;">comment</td><td style="vertical-align:top;">:</td><td><div></div></td></tr><tr><td style="font-weight:bold;vertical-align:top;">domain</td><td style="vertical-align:top;">:</td><td><div></div></td></tr><tr><td style="font-weight:bold;vertical-align:top;">expires</td><td style="vertical-align:top;">:</td><td><div></div></td></tr><tr><td style="font-weight:bold;vertical-align:top;">httponly</td><td style="vertical-align:top;">:</td><td><div></div></td></tr><tr><td style="font-weight:bold;vertical-align:top;">max-age</td><td style="vertical-align:top;">:</td><td><div></div></td></tr><tr><td style="font-weight:bold;vertical-align:top;">path</td><td style="vertical-align:top;">:</td><td><div></div></td></tr><tr><td style="font-weight:bold;vertical-align:top;">secure</td><td style="vertical-align:top;">:</td><td><div></div></td></tr><tr><td style="font-weight:bold;vertical-align:top;">version</td><td style="vertical-align:top;">:</td><td><div></div></td></tr></table></div></td></tr><tr><td style="font-weight:bold;vertical-align:top;">session_id_codetrain</td><td style="vertical-align:top;">:</td><td><div>127.0.0.1-809518b7-27d9-4383-ab7f-af5e4d6c0b4c<table><tr><td style="font-weight:bold;vertical-align:top;">comment</td><td style="vertical-align:top;">:</td><td><div></div></td></tr><tr><td style="font-weight:bold;vertical-align:top;">domain</td><td style="vertical-align:top;">:</td><td><div></div></td></tr><tr><td style="font-weight:bold;vertical-align:top;">expires</td><td style="vertical-align:top;">:</td><td><div></div></td></tr><tr><td style="font-weight:bold;vertical-align:top;">httponly</td><td style="vertical-align:top;">:</td><td><div></div></td></tr><tr><td style="font-weight:bold;vertical-align:top;">max-age</td><td style="vertical-align:top;">:</td><td><div></div></td></tr><tr><td style="font-weight:bold;vertical-align:top;">path</td><td style="vertical-align:top;">:</td><td><div></div></td></tr><tr><td style="font-weight:bold;vertical-align:top;">secure</td><td style="vertical-align:top;">:</td><td><div></div></td></tr><tr><td style="font-weight:bold;vertical-align:top;">version</td><td style="vertical-align:top;">:</td><td><div></div></td></tr></table></div></td></tr><tr><td style="font-weight:bold;vertical-align:top;">session_id_images</td><td style="vertical-align:top;">:</td><td><div>127.0.0.1-d649946c-a1f0-40a6-8a86-bc9cb7b8003e<table><tr><td style="font-weight:bold;vertical-align:top;">comment</td><td style="vertical-align:top;">:</td><td><div></div></td></tr><tr><td style="font-weight:bold;vertical-align:top;">domain</td><td style="vertical-align:top;">:</td><td><div></div></td></tr><tr><td style="font-weight:bold;vertical-align:top;">expires</td><td style="vertical-align:top;">:</td><td><div></div></td></tr><tr><td style="font-weight:bold;vertical-align:top;">httponly</td><td style="vertical-align:top;">:</td><td><div></div></td></tr><tr><td style="font-weight:bold;vertical-align:top;">max-age</td><td style="vertical-align:top;">:</td><td><div></div></td></tr><tr><td style="font-weight:bold;vertical-align:top;">path</td><td style="vertical-align:top;">:</td><td><div></div></td></tr><tr><td style="font-weight:bold;vertical-align:top;">secure</td><td style="vertical-align:top;">:</td><td><div></div></td></tr><tr><td style="font-weight:bold;vertical-align:top;">version</td><td style="vertical-align:top;">:</td><td><div></div></td></tr></table></div></td></tr><tr><td style="font-weight:bold;vertical-align:top;">session_id_mywiki</td><td style="vertical-align:top;">:</td><td><div>127.0.0.1-86b02207-954a-425c-b3b2-a72b142c331b<table><tr><td style="font-weight:bold;vertical-align:top;">comment</td><td style="vertical-align:top;">:</td><td><div></div></td></tr><tr><td style="font-weight:bold;vertical-align:top;">domain</td><td style="vertical-align:top;">:</td><td><div></div></td></tr><tr><td style="font-weight:bold;vertical-align:top;">expires</td><td style="vertical-align:top;">:</td><td><div></div></td></tr><tr><td style="font-weight:bold;vertical-align:top;">httponly</td><td style="vertical-align:top;">:</td><td><div></div></td></tr><tr><td style="font-weight:bold;vertical-align:top;">max-age</td><td style="vertical-align:top;">:</td><td><div></div></td></tr><tr><td style="font-weight:bold;vertical-align:top;">path</td><td style="vertical-align:top;">:</td><td><div></div></td></tr><tr><td style="font-weight:bold;vertical-align:top;">secure</td><td style="vertical-align:top;">:</td><td><div></div></td></tr><tr><td style="font-weight:bold;vertical-align:top;">version</td><td style="vertical-align:top;">:</td><td><div></div></td></tr></table></div></td></tr><tr><td style="font-weight:bold;vertical-align:top;">session_id_studentregistration</td><td style="vertical-align:top;">:</td><td><div>127.0.0.1-bee36922-cc32-4326-8be9-730fbea4ed26<table><tr><td style="font-weight:bold;vertical-align:top;">comment</td><td style="vertical-align:top;">:</td><td><div></div></td></tr><tr><td style="font-weight:bold;vertical-align:top;">domain</td><td style="vertical-align:top;">:</td><td><div></div></td></tr><tr><td style="font-weight:bold;vertical-align:top;">expires</td><td style="vertical-align:top;">:</td><td><div></div></td></tr><tr><td style="font-weight:bold;vertical-align:top;">httponly</td><td style="vertical-align:top;">:</td><td><div></div></td></tr><tr><td style="font-weight:bold;vertical-align:top;">max-age</td><td style="vertical-align:top;">:</td><td><div></div></td></tr><tr><td style="font-weight:bold;vertical-align:top;">path</td><td style="vertical-align:top;">:</td><td><div></div></td></tr><tr><td style="font-weight:bold;vertical-align:top;">secure</td><td style="vertical-align:top;">:</td><td><div></div></td></tr><tr><td style="font-weight:bold;vertical-align:top;">version</td><td style="vertical-align:top;">:</td><td><div></div></td></tr></table></div></td></tr><tr><td style="font-weight:bold;vertical-align:top;">session_id_welcome</td><td style="vertical-align:top;">:</td><td><div>127.0.0.1-8a9e4fbe-4b19-4199-a7b8-fc6430ee3276<table><tr><td style="font-weight:bold;vertical-align:top;">comment</td><td style="vertical-align:top;">:</td><td><div></div></td></tr><tr><td style="font-weight:bold;vertical-align:top;">domain</td><td style="vertical-align:top;">:</td><td><div></div></td></tr><tr><td style="font-weight:bold;vertical-align:top;">expires</td><td style="vertical-align:top;">:</td><td><div></div></td></tr><tr><td style="font-weight:bold;vertical-align:top;">httponly</td><td style="vertical-align:top;">:</td><td><div></div></td></tr><tr><td style="font-weight:bold;vertical-align:top;">max-age</td><td style="vertical-align:top;">:</td><td><div></div></td></tr><tr><td style="font-weight:bold;vertical-align:top;">path</td><td style="vertical-align:top;">:</td><td><div></div></td></tr><tr><td style="font-weight:bold;vertical-align:top;">secure</td><td style="vertical-align:top;">:</td><td><div></div></td></tr><tr><td style="font-weight:bold;vertical-align:top;">version</td><td style="vertical-align:top;">:</td><td><div></div></td></tr></table></div></td></tr></table></div></td></tr><tr><td style="font-weight:bold;vertical-align:top;">env</td><td style="vertical-align:top;">:</td><td><div><table><tr><td style="font-weight:bold;vertical-align:top;">HTTP_ACCEPT</td><td style="vertical-align:top;">:</td><td><div>text/html,application/xhtml+xml,application/xml;q=0.9,image/webp,image/apng,*/*;q=0.8</div></td></tr><tr><td style="font-weight:bold;vertical-align:top;">HTTP_ACCEPT_ENCODING</td><td style="vertical-align:top;">:</td><td><div>gzip, deflate, br</div></td></tr><tr><td style="font-weight:bold;vertical-align:top;">HTTP_ACCEPT_LANGUAGE</td><td style="vertical-align:top;">:</td><td><div>en-US,en;q=0.9</div></td></tr><tr><td style="font-weight:bold;vertical-align:top;">HTTP_CONNECTION</td><td style="vertical-align:top;">:</td><td><div>keep-alive</div></td></tr><tr><td style="font-weight:bold;vertical-align:top;">HTTP_COOKIE</td><td style="vertical-align:top;">:</td><td><div>session_id_admin=127.0.0.1-11653a46-4b12-4204-8169-47774af0a820; session_id_codetrain=127.0.0.1-809518b7-27d9-4383-ab7f-af5e4d6c0b4c; session_id_studentregistration=127.0.0.1-bee36922-cc32-4326-8be9-730fbea4ed26; session_id_awalsmanagementsystem=127.0.0.1-ff45e2e6-9d68-4a0e-86d4-1a01c257f4ad; session_id_images=127.0.0.1-d649946c-a1f0-40a6-8a86-bc9cb7b8003e; session_id_welcome=127.0.0.1-8a9e4fbe-4b19-4199-a7b8-fc6430ee3276; session_id_mywiki=127.0.0.1-86b02207-954a-425c-b3b2-a72b142c331b</div></td></tr><tr><td style="font-weight:bold;vertical-align:top;">HTTP_HOST</td><td style="vertical-align:top;">:</td><td><div>127.0.0.1:8000</div></td></tr><tr><td style="font-weight:bold;vertical-align:top;">HTTP_UPGRADE_INSECURE_REQUESTS</td><td style="vertical-align:top;">:</td><td><div>1</div></td></tr><tr><td style="font-weight:bold;vertical-align:top;">HTTP_USER_AGENT</td><td style="vertical-align:top;">:</td><td><div>Mozilla/5.0 (Macintosh; Intel Mac OS X 10_13_6) AppleWebKit/537.36 (KHTML, like Gecko) Chrome/71.0.3578.98 Safari/537.36</div></td></tr><tr><td style="font-weight:bold;vertical-align:top;">PATH_INFO</td><td style="vertical-align:top;">:</td><td><div>/mywiki/default/index</div></td></tr><tr><td style="font-weight:bold;vertical-align:top;">QUERY_STRING</td><td style="vertical-align:top;">:</td><td><div></div></td></tr><tr><td style="font-weight:bold;vertical-align:top;">REMOTE_ADDR</td><td style="vertical-align:top;">:</td><td><div>127.0.0.1</div></td></tr><tr><td style="font-weight:bold;vertical-align:top;">REMOTE_PORT</td><td style="vertical-align:top;">:</td><td><div>65258</div></td></tr><tr><td style="font-weight:bold;vertical-align:top;">REQUEST_METHOD</td><td style="vertical-align:top;">:</td><td><div>GET</div></td></tr><tr><td style="font-weight:bold;vertical-align:top;">SCRIPT_NAME</td><td style="vertical-align:top;">:</td><td><div></div></td></tr><tr><td style="font-weight:bold;vertical-align:top;">SERVER_NAME</td><td style="vertical-align:top;">:</td><td><div>Bolas-MacBook-Pro.local</div></td></tr><tr><td style="font-weight:bold;vertical-align:top;">SERVER_PORT</td><td style="vertical-align:top;">:</td><td><div>8000</div></td></tr><tr><td style="font-weight:bold;vertical-align:top;">SERVER_PROTOCOL</td><td style="vertical-align:top;">:</td><td><div>HTTP/1.1</div></td></tr><tr><td style="font-weight:bold;vertical-align:top;">SERVER_SOFTWARE</td><td style="vertical-align:top;">:</td><td><div>Rocket 1.2.6</div></td></tr><tr><td style="font-weight:bold;vertical-align:top;">app_folders</td><td style="vertical-align:top;">:</td><td><div>set([&#x27;/Users/bola/Desktop/web2py/applications/AwalsManagementSystem/&#x27;, &#x27;/Users/bola/Desktop/web2py/applications/admin/&#x27;, &#x27;/Users/bola/Desktop/web2py/applications/mywiki/&#x27;, &#x27;/Users/bola/Desktop/web2py/applications/images/&#x27;, &#x27;/Users/bola/Desktop/web2py/applications/welcome/&#x27;])</div></td></tr><tr><td style="font-weight:bold;vertical-align:top;">applications_parent</td><td style="vertical-align:top;">:</td><td><div>/Users/bola/Desktop/web2py</div></td></tr><tr><td style="font-weight:bold;vertical-align:top;">cmd_args</td><td style="vertical-align:top;">:</td><td><div><table></table></div></td></tr><tr><td style="font-weight:bold;vertical-align:top;">cmd_options</td><td style="vertical-align:top;">:</td><td><div>&lt;Values at 0x109701dd0: {&#x27;verbose&#x27;: False, &#x27;ip&#x27;: &#x27;127.0.0.1&#x27;, &#x27;debuglevel&#x27;: 30, &#x27;with_scheduler&#x27;: False, &#x27;shutdown_timeout&#x27;: 5, &#x27;taskbar&#x27;: False, &#x27;with_coverage&#x27;: False, &#x27;pid_filename&#x27;: &#x27;httpserver.pid&#x27;, &#x27;maxthreads&#x27;: None, &#x27;softcron&#x27;: False, &#x27;server_name&#x27;: &#x27;Bolas-MacBook-Pro.local&#x27;, &#x27;bpython&#x27;: False, &#x27;nogui&#x27;: False, &#x27;port&#x27;: 8000, &#x27;print_errors&#x27;: False, &#x27;extcron&#x27;: False, &#x27;runcron&#x27;: False, &#x27;run_system_tests&#x27;: False, &#x27;test&#x27;: None, &#x27;folder&#x27;: &#x27;/Users/bola/Desktop/web2py&#x27;, &#x27;config&#x27;: &#x27;&#x27;, &#x27;minthreads&#x27;: None, &#x27;shell&#x27;: None, &#x27;run&#x27;: &#x27;&#x27;, &#x27;log_filename&#x27;: &#x27;httpserver.log&#x27;, &#x27;profiler_dir&#x27;: None, &#x27;args&#x27;: [&#x27;&#x27;], &#x27;socket_timeout&#x27;: 5, &#x27;ssl_ca_certificate&#x27;: None, &#x27;scheduler&#x27;: None, &#x27;interfaces&#x27;: None, &#x27;ssl_private_key&#x27;: &#x27;&#x27;, &#x27;gae&#x27;: None, &#x27;password&#x27;: &#x27;******&#x27;, &#x27;request_queue_size&#x27;: 5, &#x27;ssl_certificate&#x27;: &#x27;&#x27;, &#x27;cronjob&#x27;: False, &#x27;numthreads&#x27;: None, &#x27;quiet&#x27;: False, &#x27;import_models&#x27;: False, &#x27;timeout&#x27;: 10, &#x27;plain&#x27;: False, &#x27;nobanner&#x27;: False}&gt;</div></td></tr><tr><td style="font-weight:bold;vertical-align:top;">db_sessions</td><td style="vertical-align:top;">:</td><td><div>set([])</div></td></tr><tr><td style="font-weight:bold;vertical-align:top;">debugging</td><td style="vertical-align:top;">:</td><td><div>True</div></td></tr><tr><td style="font-weight:bold;vertical-align:top;">gluon_parent</td><td style="vertical-align:top;">:</td><td><div>/Users/bola/Desktop/web2py</div></td></tr><tr><td style="font-weight:bold;vertical-align:top;">http_accept</td><td style="vertical-align:top;">:</td><td><div>text/html,application/xhtml+xml,application/xml;q=0.9,image/webp,image/apng,*/*;q=0.8</div></td></tr><tr><td style="font-weight:bold;vertical-align:top;">http_accept_encoding</td><td style="vertical-align:top;">:</td><td><div>gzip, deflate, br</div></td></tr><tr><td style="font-weight:bold;vertical-align:top;">http_accept_language</td><td style="vertical-align:top;">:</td><td><div>en-US,en;q=0.9</div></td></tr><tr><td style="font-weight:bold;vertical-align:top;">http_connection</td><td style="vertical-align:top;">:</td><td><div>keep-alive</div></td></tr><tr><td style="font-weight:bold;vertical-align:top;">http_cookie</td><td style="vertical-align:top;">:</td><td><div>session_id_admin=127.0.0.1-11653a46-4b12-4204-8169-47774af0a820; session_id_codetrain=127.0.0.1-809518b7-27d9-4383-ab7f-af5e4d6c0b4c; session_id_studentregistration=127.0.0.1-bee36922-cc32-4326-8be9-730fbea4ed26; session_id_awalsmanagementsystem=127.0.0.1-ff45e2e6-9d68-4a0e-86d4-1a01c257f4ad; session_id_images=127.0.0.1-d649946c-a1f0-40a6-8a86-bc9cb7b8003e; session_id_welcome=127.0.0.1-8a9e4fbe-4b19-4199-a7b8-fc6430ee3276; session_id_mywiki=127.0.0.1-86b02207-954a-425c-b3b2-a72b142c331b</div></td></tr><tr><td style="font-weight:bold;vertical-align:top;">http_host</td><td style="vertical-align:top;">:</td><td><div>127.0.0.1:8000</div></td></tr><tr><td style="font-weight:bold;vertical-align:top;">http_upgrade_insecure_requests</td><td style="vertical-align:top;">:</td><td><div>1</div></td></tr><tr><td style="font-weight:bold;vertical-align:top;">http_user_agent</td><td style="vertical-align:top;">:</td><td><div>Mozilla/5.0 (Macintosh; Intel Mac OS X 10_13_6) AppleWebKit/537.36 (KHTML, like Gecko) Chrome/71.0.3578.98 Safari/537.36</div></td></tr><tr><td style="font-weight:bold;vertical-align:top;">is_jython</td><td style="vertical-align:top;">:</td><td><div>False</div></td></tr><tr><td style="font-weight:bold;vertical-align:top;">is_py2</td><td style="vertical-align:top;">:</td><td><div>True</div></td></tr><tr><td style="font-weight:bold;vertical-align:top;">is_pypy</td><td style="vertical-align:top;">:</td><td><div>False</div></td></tr><tr><td style="font-weight:bold;vertical-align:top;">is_source</td><td style="vertical-align:top;">:</td><td><div>True</div></td></tr><tr><td style="font-weight:bold;vertical-align:top;">local_hosts</td><td style="vertical-align:top;">:</td><td><div><table><tr><td><div>192.168.1.18</div></td></tr><tr><td><div>::ffff:127.0.0.1</div></td></tr><tr><td><div>::1</div></td></tr><tr><td><div>fe80::10e0:8bd8:c93:dd7c%en0</div></td></tr><tr><td><div>Bolas-MacBook-Pro.local</div></td></tr><tr><td><div>127.0.0.1</div></td></tr></table></div></td></tr><tr><td style="font-weight:bold;vertical-align:top;">path_info</td><td style="vertical-align:top;">:</td><td><div>/mywiki/default/index</div></td></tr><tr><td style="font-weight:bold;vertical-align:top;">query_string</td><td style="vertical-align:top;">:</td><td><div></div></td></tr><tr><td style="font-weight:bold;vertical-align:top;">remote_addr</td><td style="vertical-align:top;">:</td><td><div>127.0.0.1</div></td></tr><tr><td style="font-weight:bold;vertical-align:top;">remote_port</td><td style="vertical-align:top;">:</td><td><div>65258</div></td></tr><tr><td style="font-weight:bold;vertical-align:top;">request_method</td><td style="vertical-align:top;">:</td><td><div>GET</div></td></tr><tr><td style="font-weight:bold;vertical-align:top;">request_uri</td><td style="vertical-align:top;">:</td><td><div>/mywiki/default/index</div></td></tr><tr><td style="font-weight:bold;vertical-align:top;">script_name</td><td style="vertical-align:top;">:</td><td><div></div></td></tr><tr><td style="font-weight:bold;vertical-align:top;">server_name</td><td style="vertical-align:top;">:</td><td><div>Bolas-MacBook-Pro.local</div></td></tr><tr><td style="font-weight:bold;vertical-align:top;">server_port</td><td style="vertical-align:top;">:</td><td><div>8000</div></td></tr><tr><td style="font-weight:bold;vertical-align:top;">server_protocol</td><td style="vertical-align:top;">:</td><td><div>HTTP/1.1</div></td></tr><tr><td style="font-weight:bold;vertical-align:top;">server_software</td><td style="vertical-align:top;">:</td><td><div>Rocket 1.2.6</div></td></tr><tr><td style="font-weight:bold;vertical-align:top;">web2py_original_uri</td><td style="vertical-align:top;">:</td><td><div>/mywiki/default/index</div></td></tr><tr><td style="font-weight:bold;vertical-align:top;">web2py_path</td><td style="vertical-align:top;">:</td><td><div>/Users/bola/Desktop/web2py</div></td></tr><tr><td style="font-weight:bold;vertical-align:top;">web2py_version</td><td style="vertical-align:top;">:</td><td><div>2.17.1-stable+timestamp.2018.08.06.01.02.56</div></td></tr><tr><td style="font-weight:bold;vertical-align:top;">wsgi.errors</td><td style="vertical-align:top;">:</td><td><div>&lt;open file &#x27;&lt;stderr&gt;&#x27;, mode &#x27;w&#x27; at 0x1089821e0&gt;</div></td></tr><tr><td style="font-weight:bold;vertical-align:top;">wsgi.file_wrapper</td><td style="vertical-align:top;">:</td><td><div>&lt;class wsgiref.util.FileWrapper at 0x1096b2ef0&gt;</div></td></tr><tr><td style="font-weight:bold;vertical-align:top;">wsgi.input</td><td style="vertical-align:top;">:</td><td><div>&lt;socket._fileobject object at 0x11025a9d0&gt;</div></td></tr><tr><td style="font-weight:bold;vertical-align:top;">wsgi.multiprocess</td><td style="vertical-align:top;">:</td><td><div>False</div></td></tr><tr><td style="font-weight:bold;vertical-align:top;">wsgi.multithread</td><td style="vertical-align:top;">:</td><td><div>True</div></td></tr><tr><td style="font-weight:bold;vertical-align:top;">wsgi.run_once</td><td style="vertical-align:top;">:</td><td><div>False</div></td></tr><tr><td style="font-weight:bold;vertical-align:top;">wsgi.url_scheme</td><td style="vertical-align:top;">:</td><td><div>http</div></td></tr><tr><td style="font-weight:bold;vertical-align:top;">wsgi.version</td><td style="vertical-align:top;">:</td><td><div><table><tr><td><div>1</div></td></tr><tr><td><div>0</div></td></tr></table></div></td></tr><tr><td style="font-weight:bold;vertical-align:top;">wsgi_errors</td><td style="vertical-align:top;">:</td><td><div>&lt;open file &#x27;&lt;stderr&gt;&#x27;, mode &#x27;w&#x27; at 0x1089821e0&gt;</div></td></tr><tr><td style="font-weight:bold;vertical-align:top;">wsgi_file_wrapper</td><td style="vertical-align:top;">:</td><td><div>&lt;class wsgiref.util.FileWrapper at 0x1096b2ef0&gt;</div></td></tr><tr><td style="font-weight:bold;vertical-align:top;">wsgi_input</td><td style="vertical-align:top;">:</td><td><div>&lt;socket._fileobject object at 0x11025a9d0&gt;</div></td></tr><tr><td style="font-weight:bold;vertical-align:top;">wsgi_multiprocess</td><td style="vertical-align:top;">:</td><td><div>False</div></td></tr><tr><td style="font-weight:bold;vertical-align:top;">wsgi_multithread</td><td style="vertical-align:top;">:</td><td><div>True</div></td></tr><tr><td style="font-weight:bold;vertical-align:top;">wsgi_run_once</td><td style="vertical-align:top;">:</td><td><div>False</div></td></tr><tr><td style="font-weight:bold;vertical-align:top;">wsgi_url_scheme</td><td style="vertical-align:top;">:</td><td><div>http</div></td></tr><tr><td style="font-weight:bold;vertical-align:top;">wsgi_version</td><td style="vertical-align:top;">:</td><td><div><table><tr><td><div>1</div></td></tr><tr><td><div>0</div></td></tr></table></div></td></tr></table></div></td></tr><tr><td style="font-weight:bold;vertical-align:top;">extension</td><td style="vertical-align:top;">:</td><td><div>html</div></td></tr><tr><td style="font-weight:bold;vertical-align:top;">folder</td><td style="vertical-align:top;">:</td><td><div>/Users/bola/Desktop/web2py/applications/mywiki/</div></td></tr><tr><td style="font-weight:bold;vertical-align:top;">function</td><td style="vertical-align:top;">:</td><td><div>index</div></td></tr><tr><td style="font-weight:bold;vertical-align:top;">global_settings</td><td style="vertical-align:top;">:</td><td><div><table><tr><td style="font-weight:bold;vertical-align:top;">app_folders</td><td style="vertical-align:top;">:</td><td><div>set([&#x27;/Users/bola/Desktop/web2py/applications/AwalsManagementSystem/&#x27;, &#x27;/Users/bola/Desktop/web2py/applications/admin/&#x27;, &#x27;/Users/bola/Desktop/web2py/applications/mywiki/&#x27;, &#x27;/Users/bola/Desktop/web2py/applications/images/&#x27;, &#x27;/Users/bola/Desktop/web2py/applications/welcome/&#x27;])</div></td></tr><tr><td style="font-weight:bold;vertical-align:top;">applications_parent</td><td style="vertical-align:top;">:</td><td><div>/Users/bola/Desktop/web2py</div></td></tr><tr><td style="font-weight:bold;vertical-align:top;">cmd_args</td><td style="vertical-align:top;">:</td><td><div><table></table></div></td></tr><tr><td style="font-weight:bold;vertical-align:top;">cmd_options</td><td style="vertical-align:top;">:</td><td><div>&lt;Values at 0x109701dd0: {&#x27;verbose&#x27;: False, &#x27;ip&#x27;: &#x27;127.0.0.1&#x27;, &#x27;debuglevel&#x27;: 30, &#x27;with_scheduler&#x27;: False, &#x27;shutdown_timeout&#x27;: 5, &#x27;taskbar&#x27;: False, &#x27;with_coverage&#x27;: False, &#x27;pid_filename&#x27;: &#x27;httpserver.pid&#x27;, &#x27;maxthreads&#x27;: None, &#x27;softcron&#x27;: False, &#x27;server_name&#x27;: &#x27;Bolas-MacBook-Pro.local&#x27;, &#x27;bpython&#x27;: False, &#x27;nogui&#x27;: False, &#x27;port&#x27;: 8000, &#x27;print_errors&#x27;: False, &#x27;extcron&#x27;: False, &#x27;runcron&#x27;: False, &#x27;run_system_tests&#x27;: False, &#x27;test&#x27;: None, &#x27;folder&#x27;: &#x27;/Users/bola/Desktop/web2py&#x27;, &#x27;config&#x27;: &#x27;&#x27;, &#x27;minthreads&#x27;: None, &#x27;shell&#x27;: None, &#x27;run&#x27;: &#x27;&#x27;, &#x27;log_filename&#x27;: &#x27;httpserver.log&#x27;, &#x27;profiler_dir&#x27;: None, &#x27;args&#x27;: [&#x27;&#x27;], &#x27;socket_timeout&#x27;: 5, &#x27;ssl_ca_certificate&#x27;: None, &#x27;scheduler&#x27;: None, &#x27;interfaces&#x27;: None, &#x27;ssl_private_key&#x27;: &#x27;&#x27;, &#x27;gae&#x27;: None, &#x27;password&#x27;: &#x27;******&#x27;, &#x27;request_queue_size&#x27;: 5, &#x27;ssl_certificate&#x27;: &#x27;&#x27;, &#x27;cronjob&#x27;: False, &#x27;numthreads&#x27;: None, &#x27;quiet&#x27;: False, &#x27;import_models&#x27;: False, &#x27;timeout&#x27;: 10, &#x27;plain&#x27;: False, &#x27;nobanner&#x27;: False}&gt;</div></td></tr><tr><td style="font-weight:bold;vertical-align:top;">db_sessions</td><td style="vertical-align:top;">:</td><td><div>set([])</div></td></tr><tr><td style="font-weight:bold;vertical-align:top;">debugging</td><td style="vertical-align:top;">:</td><td><div>True</div></td></tr><tr><td style="font-weight:bold;vertical-align:top;">gluon_parent</td><td style="vertical-align:top;">:</td><td><div>/Users/bola/Desktop/web2py</div></td></tr><tr><td style="font-weight:bold;vertical-align:top;">is_jython</td><td style="vertical-align:top;">:</td><td><div>False</div></td></tr><tr><td style="font-weight:bold;vertical-align:top;">is_py2</td><td style="vertical-align:top;">:</td><td><div>True</div></td></tr><tr><td style="font-weight:bold;vertical-align:top;">is_pypy</td><td style="vertical-align:top;">:</td><td><div>False</div></td></tr><tr><td style="font-weight:bold;vertical-align:top;">is_source</td><td style="vertical-align:top;">:</td><td><div>True</div></td></tr><tr><td style="font-weight:bold;vertical-align:top;">local_hosts</td><td style="vertical-align:top;">:</td><td><div><table><tr><td><div>192.168.1.18</div></td></tr><tr><td><div>::ffff:127.0.0.1</div></td></tr><tr><td><div>::1</div></td></tr><tr><td><div>fe80::10e0:8bd8:c93:dd7c%en0</div></td></tr><tr><td><div>Bolas-MacBook-Pro.local</div></td></tr><tr><td><div>127.0.0.1</div></td></tr></table></div></td></tr><tr><td style="font-weight:bold;vertical-align:top;">web2py_version</td><td style="vertical-align:top;">:</td><td><div>2.17.1-stable+timestamp.2018.08.06.01.02.56</div></td></tr></table></div></td></tr><tr><td style="font-weight:bold;vertical-align:top;">is_https</td><td style="vertical-align:top;">:</td><td><div>False</div></td></tr><tr><td style="font-weight:bold;vertical-align:top;">is_local</td><td style="vertical-align:top;">:</td><td><div>True</div></td></tr><tr><td style="font-weight:bold;vertical-align:top;">is_restful</td><td style="vertical-align:top;">:</td><td><div>False</div></td></tr><tr><td style="font-weight:bold;vertical-align:top;">is_scheduler</td><td style="vertical-align:top;">:</td><td><div>False</div></td></tr><tr><td style="font-weight:bold;vertical-align:top;">is_shell</td><td style="vertical-align:top;">:</td><td><div>False</div></td></tr><tr><td style="font-weight:bold;vertical-align:top;">method</td><td style="vertical-align:top;">:</td><td><div>GET</div></td></tr><tr><td style="font-weight:bold;vertical-align:top;">now</td><td style="vertical-align:top;">:</td><td><div>datetime.datetime(2019, 1, 29, 13, 14, 7, 347381)</div></td></tr><tr><td style="font-weight:bold;vertical-align:top;">raw_args</td><td style="vertical-align:top;">:</td><td><div></div></td></tr><tr><td style="font-weight:bold;vertical-align:top;">raw_extension</td><td style="vertical-align:top;">:</td><td><div>None</div></td></tr><tr><td style="font-weight:bold;vertical-align:top;">url</td><td style="vertical-align:top;">:</td><td><div>/mywiki/default/index</div></td></tr><tr><td style="font-weight:bold;vertical-align:top;">utcnow</td><td style="vertical-align:top;">:</td><td><div>datetime.datetime(2019, 1, 29, 13, 14, 7, 347391)</div></td></tr><tr><td style="font-weight:bold;vertical-align:top;">wsgi</td><td style="vertical-align:top;">:</td><td><div>&lt;gluon.main.LazyWSGI object at 0x10ff65850&gt;</div></td></tr></table></div>'
tRp60
sS'frames'
p61
(lp62
(dp63
S'file'
p64
S'/Users/bola/Desktop/web2py/gluon/restricted.py'
p65
sS'dump'
p66
(dp67
S'environment'
p68
S"{'A': <class 'gluon.html.A'>, 'ANY_OF': <class 'gluon.validators.ANY_OF'>, 'ASSIGNJS': <function ASSIGNJS>, 'Auth': <class 'gluon.tools.Auth'>, 'B': <class 'gluon.html.B'>, 'BEAUTIFY': <class 'gluon.html.BEAUTIFY'>, 'BODY': <class 'gluon.html.BODY'>, 'BR': <class 'gluon.html.BR'>, 'BUTTON': <class 'gluon.html.BUTTON'>, 'CAT': <class 'gluon.html.CAT'>, ...}"
p69
sS'ccode'
p70
S'<code object <module> at 0x1104aa530, file "/Use...cations/mywiki/views/default/index.html", line 1>'
p71
ssS'lnum'
p72
I219
sS'lines'
p73
(dp74
I214
S'    if environment is None:'
p75
sI215
S'        environment = {}'
p76
sI216
S"    environment['__file__'] = layer"
p77
sI217
S"    environment['__name__'] = '__restricted__'"
p78
sI218
S'    try:'
p79
sI219
S'        exec(ccode, environment)'
p80
sI220
S'    except HTTP:'
p81
sI221
S'        raise'
p82
sI222
S'    except RestrictedError:'
p83
sI223
S'        # do not encapsulate (obfuscate) the original RestrictedError'
p84
ssS'call'
p85
S'(ccode=<code object <module> at 0x1104aa530, file "/Use...cations/mywiki/views/default/index.html", line 1>, environment={\'A\': <class \'gluon.html.A\'>, \'ANY_OF\': <class \'gluon.validators.ANY_OF\'>, \'ASSIGNJS\': <function ASSIGNJS>, \'Auth\': <class \'gluon.tools.Auth\'>, \'B\': <class \'gluon.html.B\'>, \'BEAUTIFY\': <class \'gluon.html.BEAUTIFY\'>, \'BODY\': <class \'gluon.html.BODY\'>, \'BR\': <class \'gluon.html.BR\'>, \'BUTTON\': <class \'gluon.html.BUTTON\'>, \'CAT\': <class \'gluon.html.CAT\'>, ...}, layer=\'/Users/bola/Desktop/web2py/applications/mywiki/views/default/index.html\', scode=r"response.write(\'<!DOCTYPE html>\\n<!--[if (gt IE ...nse.write(\'\\n  </body>\\n</html>\\n\', escape=False)")'
p86
sS'func'
p87
S'restricted'
p88
sa(dp89
g64
S'/Users/bola/Desktop/web2py/applications/mywiki/views/default/index.html'
p90
sg66
(dp91
sg72
I127
sg73
(dp92
I128
S"    response.write('\\n    ', escape=False)"
p93
sI129
S"    response.write(LI(A(page.title, _href=URL('show', args=page.id))))"
p94
sI130
S"    response.write('\\n', escape=False)"
p95
sI131
S'    pass'
p96
sI132
S"response.write('</ul>\\n[ ', escape=False)"
p97
sI133
S"response.write(A('create page', _href=URL('create')))"
p98
sI134
S"response.write(' ]', escape=False)"
p99
sI135
S"response.write('\\n      ', escape=False)"
p100
sI136
S"response.write(response.toolbar() if response.show_toolbar else '')"
p101
sI137
S"response.write('\\n    </div>\\n\\n    ', escape=False)"
p102
sI118
S'        pass'
p103
sI119
S"    response.write('\\n            </div>\\n          </li>\\n        </ul>\\n        ', escape=False)"
p104
sI120
S'    pass'
p105
sI121
S"response.write('\\n      </div>\\n    </nav>\\n\\n    <!-- Masthead ===================================== -->\\n    ', escape=False)"
p106
sI122
S"response.write('\\n    ', escape=False)"
p107
sI123
S'response.write(\'\\n    <!-- Main ========================================= -->\\n    <!-- Begin page content -->\\n    <div class="container-fluid main-container">\\n      \', escape=False)'
p108
sI124
S"response.write('\\n<h1>Available wiki pages</h1>\\n[ ', escape=False)"
p109
sI125
S"response.write(A('search', _href=URL('search')))"
p110
sI126
S"response.write(' ]<br />\\n<ul>', escape=False)"
p111
sI127
S'for page in pages:'
p112
ssg85
S'()'
p113
sg87
S'<module>'
p114
sasS'pyver'
p115
S'Python 2.7.10: /usr/bin/python (prefix: /System/Library/Frameworks/Python.framework/Versions/2.7)'
p116
sS'session'
p117
g59
(S's\x9c\x00\x00\x00<div><table><tr><td style="font-weight:bold;vertical-align:top;">flash</td><td style="vertical-align:top;">:</td><td><div>None</div></td></tr></table></div>'
tRp118
sS'etype'
p119
S"<type 'exceptions.NameError'>"
p120
sS'date'
p121
S'Tue Jan 29 13:14:07 2019'
p122
sS'response'
p123
g59
(S'sG\x18\x00\x00<div><table><tr><td style="font-weight:bold;vertical-align:top;">body</td><td style="vertical-align:top;">:</td><td><div>&lt;cStringIO.StringO object at 0x1103478b8&gt;</div></td></tr><tr><td style="font-weight:bold;vertical-align:top;">cookies</td><td style="vertical-align:top;">:</td><td><div><table><tr><td style="font-weight:bold;vertical-align:top;">session_id_mywiki</td><td style="vertical-align:top;">:</td><td><div>127.0.0.1-86b02207-954a-425c-b3b2-a72b142c331b<table><tr><td style="font-weight:bold;vertical-align:top;">comment</td><td style="vertical-align:top;">:</td><td><div></div></td></tr><tr><td style="font-weight:bold;vertical-align:top;">domain</td><td style="vertical-align:top;">:</td><td><div></div></td></tr><tr><td style="font-weight:bold;vertical-align:top;">expires</td><td style="vertical-align:top;">:</td><td><div></div></td></tr><tr><td style="font-weight:bold;vertical-align:top;">httponly</td><td style="vertical-align:top;">:</td><td><div></div></td></tr><tr><td style="font-weight:bold;vertical-align:top;">max-age</td><td style="vertical-align:top;">:</td><td><div></div></td></tr><tr><td style="font-weight:bold;vertical-align:top;">path</td><td style="vertical-align:top;">:</td><td><div>/</div></td></tr><tr><td style="font-weight:bold;vertical-align:top;">secure</td><td style="vertical-align:top;">:</td><td><div></div></td></tr><tr><td style="font-weight:bold;vertical-align:top;">version</td><td style="vertical-align:top;">:</td><td><div></div></td></tr></table></div></td></tr></table></div></td></tr><tr><td style="font-weight:bold;vertical-align:top;">delimiters</td><td style="vertical-align:top;">:</td><td><div><table><tr><td><div>{{</div></td></tr><tr><td><div>}}</div></td></tr></table></div></td></tr><tr><td style="font-weight:bold;vertical-align:top;">files</td><td style="vertical-align:top;">:</td><td><div><table><tr><td><div>/mywiki/static/js/jquery.js</div></td></tr><tr><td><div>/mywiki/static/css/calendar.css</div></td></tr><tr><td><div>/mywiki/static/js/calendar.js</div></td></tr><tr><td><div>/mywiki/static/js/web2py.js</div></td></tr></table></div></td></tr><tr><td style="font-weight:bold;vertical-align:top;">flash</td><td style="vertical-align:top;">:</td><td><div></div></td></tr><tr><td style="font-weight:bold;vertical-align:top;">form_label_separator</td><td style="vertical-align:top;">:</td><td><div>: </div></td></tr><tr><td style="font-weight:bold;vertical-align:top;">formstyle</td><td style="vertical-align:top;">:</td><td><div>table3cols</div></td></tr><tr><td style="font-weight:bold;vertical-align:top;">generic_patterns</td><td style="vertical-align:top;">:</td><td><div><table><tr><td><div>*</div></td></tr></table></div></td></tr><tr><td style="font-weight:bold;vertical-align:top;">headers</td><td style="vertical-align:top;">:</td><td><div><table><tr><td style="font-weight:bold;vertical-align:top;">X-Powered-By</td><td style="vertical-align:top;">:</td><td><div>web2py</div></td></tr></table></div></td></tr><tr><td style="font-weight:bold;vertical-align:top;">menu</td><td style="vertical-align:top;">:</td><td><div><table></table></div></td></tr><tr><td style="font-weight:bold;vertical-align:top;">meta</td><td style="vertical-align:top;">:</td><td><div><table></table></div></td></tr><tr><td style="font-weight:bold;vertical-align:top;">models_to_run</td><td style="vertical-align:top;">:</td><td><div><table><tr><td><div>^\\w+\\.py$</div></td></tr><tr><td><div>^default/\\w+\\.py$</div></td></tr><tr><td><div>^default/index/\\w+\\.py$</div></td></tr></table></div></td></tr><tr><td style="font-weight:bold;vertical-align:top;">postprocessing</td><td style="vertical-align:top;">:</td><td><div><table></table></div></td></tr><tr><td style="font-weight:bold;vertical-align:top;">session_client</td><td style="vertical-align:top;">:</td><td><div>127.0.0.1</div></td></tr><tr><td style="font-weight:bold;vertical-align:top;">session_cookie_compression_level</td><td style="vertical-align:top;">:</td><td><div>None</div></td></tr><tr><td style="font-weight:bold;vertical-align:top;">session_cookie_expires</td><td style="vertical-align:top;">:</td><td><div>None</div></td></tr><tr><td style="font-weight:bold;vertical-align:top;">session_data_name</td><td style="vertical-align:top;">:</td><td><div>session_data_mywiki</div></td></tr><tr><td style="font-weight:bold;vertical-align:top;">session_file</td><td style="vertical-align:top;">:</td><td><div>&lt;open file &#x27;/Users/bola/Desktop/web2py/applications/mywiki/sessions/189/081/127.0.0.1-86b02207-954a-425c-b3b2-a72b142c331b&#x27;, mode &#x27;rb+&#x27; at 0x11032e780&gt;</div></td></tr><tr><td style="font-weight:bold;vertical-align:top;">session_filename</td><td style="vertical-align:top;">:</td><td><div>/Users/bola/Desktop/web2py/applications/mywiki/sessions/127.0.0.1-86b02207-954a-425c-b3b2-a72b142c331b</div></td></tr><tr><td style="font-weight:bold;vertical-align:top;">session_hash</td><td style="vertical-align:top;">:</td><td><div>10d8cf9267ef4a041d80979c940668fa</div></td></tr><tr><td style="font-weight:bold;vertical-align:top;">session_id</td><td style="vertical-align:top;">:</td><td><div>127.0.0.1-86b02207-954a-425c-b3b2-a72b142c331b</div></td></tr><tr><td style="font-weight:bold;vertical-align:top;">session_id_name</td><td style="vertical-align:top;">:</td><td><div>session_id_mywiki</div></td></tr><tr><td style="font-weight:bold;vertical-align:top;">session_locked</td><td style="vertical-align:top;">:</td><td><div>True</div></td></tr><tr><td style="font-weight:bold;vertical-align:top;">session_masterapp</td><td style="vertical-align:top;">:</td><td><div>mywiki</div></td></tr><tr><td style="font-weight:bold;vertical-align:top;">session_new</td><td style="vertical-align:top;">:</td><td><div>False</div></td></tr><tr><td style="font-weight:bold;vertical-align:top;">session_storage_type</td><td style="vertical-align:top;">:</td><td><div>file</div></td></tr><tr><td style="font-weight:bold;vertical-align:top;">status</td><td style="vertical-align:top;">:</td><td><div>200</div></td></tr><tr><td style="font-weight:bold;vertical-align:top;">view</td><td style="vertical-align:top;">:</td><td><div>default/index.html</div></td></tr></table></div>'
tRp124
sS'locals'
p125
(dp126
S'Service'
p127
S"<class 'gluon.tools.Service'>"
p128
sS'PY2'
p129
S'True'
p130
sS'OBJECT'
p131
S"<class 'gluon.html.OBJECT'>"
p132
sS'SQLDB'
p133
S"<class 'pydal.base.DAL'>"
p134
sg117
S"<Storage {'_formkey[page/create]': ['33f050bd-42...rer_web2py_grid': '/mywiki/default/documents/1'}>"
p135
sS'LINK'
p136
S"<class 'gluon.html.LINK'>"
p137
sS'BR'
p138
S"<class 'gluon.html.BR'>"
p139
sS'local_import'
p140
S'<function <lambda>>'
p141
sS'OPTGROUP'
p142
S"<class 'gluon.html.OPTGROUP'>"
p143
sS'__package__'
p144
S'None'
p145
sS'PRE'
p146
S"<class 'gluon.html.PRE'>"
p147
sS'IS_INT_IN_RANGE'
p148
S"<class 'gluon.validators.IS_INT_IN_RANGE'>"
p149
sS'to_bytes'
p150
S'<function to_bytes>'
p151
sS'IS_LOWER'
p152
S"<class 'gluon.validators.IS_LOWER'>"
p153
sS'IS_STRONG'
p154
S"<class 'gluon.validators.IS_STRONG'>"
p155
sS'cache'
p156
S'<gluon.cache.Cache object>'
p157
sS'IS_IN_DB'
p158
S"<class 'gluon.validators.IS_IN_DB'>"
p159
sS'TAG'
p160
S'<gluon.html.__TAG__ object>'
p161
sS'SQLField'
p162
S"<class 'pydal.objects.Field'>"
p163
sS'BODY'
p164
S"<class 'gluon.html.BODY'>"
p165
sS'IS_DATE_IN_RANGE'
p166
S"<class 'gluon.validators.IS_DATE_IN_RANGE'>"
p167
sS'IFRAME'
p168
S"<class 'gluon.html.IFRAME'>"
p169
sS'URL'
p170
S'<function URL>'
p171
sS'__file__'
p172
S"'/Users/bola/Desktop/web2py/applications/mywiki/views/default/index.html'"
p173
sS'db'
p174
S'<DAL uri="sqlite://storage.sqlite">'
p175
sS'auth'
p176
S'<gluon.tools.Auth object>'
p177
sS'P'
S"<class 'gluon.html.P'>"
p178
sS'TFOOT'
p179
S"<class 'gluon.html.TFOOT'>"
p180
sS'iteritems'
p181
S'<function <lambda>>'
p182
sS'XHTML'
p183
S"<class 'gluon.html.XHTML'>"
p184
sS'ON'
p185
g130
sS'OL'
p186
S"<class 'gluon.html.OL'>"
p187
sS'TEXTAREA'
p188
S"<class 'gluon.html.TEXTAREA'>"
p189
sS'MENU'
p190
S"<class 'gluon.html.MENU'>"
p191
sS'IS_IMAGE'
p192
S"<class 'gluon.validators.IS_IMAGE'>"
p193
sS'reverse_geocode'
p194
S'<function reverse_geocode>'
p195
sS'EM'
p196
S"<class 'gluon.html.EM'>"
p197
sS'CODE'
p198
S"<class 'gluon.html.CODE'>"
p199
sS'HTTP'
p200
S"<class 'gluon.http.HTTP'>"
p201
sS'HR'
p202
S"<class 'gluon.html.HR'>"
p203
sS'IS_DATETIME'
p204
S"<class 'gluon.validators.IS_DATETIME'>"
p205
sS'reduce'
p206
S'<built-in function reduce>'
p207
sS'STYLE'
p208
S"<class 'gluon.html.STYLE'>"
p209
sS'LABEL'
p210
S"<class 'gluon.html.LABEL'>"
p211
sS'CLEANUP'
p212
S"<class 'gluon.validators.CLEANUP'>"
p213
sS'SELECT'
p214
S"<class 'gluon.html.SELECT'>"
p215
sS'CENTER'
p216
S"<class 'gluon.html.CENTER'>"
p217
sS'prettydate'
p218
S'<function prettydate>'
p219
sS'Crud'
p220
S"<class 'gluon.tools.Crud'>"
p221
sS'Auth'
p222
S"<class 'gluon.tools.Auth'>"
p223
sS'content'
p224
S'<gluon.html.A object>'
p225
sS'__builtins__'
p226
S"{'ArithmeticError': <type 'exceptions.ArithmeticError'>, 'AssertionError': <type 'exceptions.AssertionError'>, 'AttributeError': <type 'exceptions.AttributeError'>, 'BaseException': <type 'exceptions.BaseException'>, 'BufferError': <type 'exceptions.BufferError'>, 'BytesWarning': <type 'exceptions.BytesWarning'>, 'DeprecationWarning': <type 'exceptions.DeprecationWarning'>, 'EOFError': <type 'exceptions.EOFError'>, 'Ellipsis': Ellipsis, 'EnvironmentError': <type 'exceptions.EnvironmentError'>, ...}"
p227
sS'HTML'
p228
S"<class 'gluon.html.HTML'>"
p229
sS'SQLFORM'
p230
S"<class 'gluon.sqlhtml.SQLFORM'>"
p231
sS'LOAD'
p232
S'<function LOAD>'
p233
sS'redirect'
p234
S'<function redirect>'
p235
sS'FIELDSET'
p236
S"<class 'gluon.html.FIELDSET'>"
p237
sS'IS_EQUAL_TO'
p238
S"<class 'gluon.validators.IS_EQUAL_TO'>"
p239
sS'embed64'
p240
S'<function embed64>'
p241
sS'IS_LIST_OF'
p242
S"<class 'gluon.validators.IS_LIST_OF'>"
p243
sS'INPUT'
p244
S"<class 'gluon.html.INPUT'>"
p245
sS'EMBED'
p246
S"<class 'gluon.html.EMBED'>"
p247
sS'H2'
p248
S"<class 'gluon.html.H2'>"
p249
sS'H3'
p250
S"<class 'gluon.html.H3'>"
p251
sS'BUTTON'
p252
S"<class 'gluon.html.BUTTON'>"
p253
sS'H1'
p254
S"<class 'gluon.html.H1'>"
p255
sS'H6'
p256
S"<class 'gluon.html.H6'>"
p257
sS'H4'
p258
S"<class 'gluon.html.H4'>"
p259
sS'H5'
p260
S"<class 'gluon.html.H5'>"
p261
sS'UL'
p262
S"<class 'gluon.html.UL'>"
p263
sS'IS_UPPER'
p264
S"<class 'gluon.validators.IS_UPPER'>"
p265
sS'xmlescape'
p266
S'<function xmlescape>'
p267
sS'IS_TIME'
p268
S"<class 'gluon.validators.IS_TIME'>"
p269
sS'OPTION'
p270
S"<class 'gluon.html.OPTION'>"
p271
sS'TITLE'
p272
S"<class 'gluon.html.TITLE'>"
p273
sS'CRYPT'
p274
S"<class 'gluon.validators.CRYPT'>"
p275
sS'IS_EMPTY_OR'
p276
S"<class 'gluon.validators.IS_EMPTY_OR'>"
p277
sS'MARKMIN'
p278
S"<class 'gluon.html.MARKMIN'>"
p279
sS'Recaptcha2'
p280
S"<class 'gluon.tools.Recaptcha2'>"
p281
sS'__name__'
p282
S"'__restricted__'"
p283
sS'STRONG'
p284
S"<class 'gluon.html.STRONG'>"
p285
sS'COL'
p286
S"<class 'gluon.html.COL'>"
p287
sS'SCRIPT'
p288
S"<class 'gluon.html.SCRIPT'>"
p289
sS'geocode'
p290
S'<function geocode>'
p291
sS'TABLE'
p292
S"<class 'gluon.html.TABLE'>"
p293
sS'IS_IPV4'
p294
S"<class 'gluon.validators.IS_IPV4'>"
p295
sS'IS_LENGTH'
p296
S"<class 'gluon.validators.IS_LENGTH'>"
p297
sS'IS_IPV6'
p298
S"<class 'gluon.validators.IS_IPV6'>"
p299
sS'XML'
p300
S"<class 'gluon.html.XML'>"
p301
sS'Wiki'
p302
S"<class 'gluon.tools.Wiki'>"
p303
sS'B'
S"<class 'gluon.html.B'>"
p304
sS'IMG'
p305
S"<class 'gluon.html.IMG'>"
p306
sS'SQLTABLE'
p307
S"<class 'gluon.sqlhtml.SQLTABLE'>"
p308
sS'IS_MATCH'
p309
S"<class 'gluon.validators.IS_MATCH'>"
p310
sS'IS_ALPHANUMERIC'
p311
S"<class 'gluon.validators.IS_ALPHANUMERIC'>"
p312
sS'SPAN'
p313
S"<class 'gluon.html.SPAN'>"
p314
sS'IS_JSON'
p315
S"<class 'gluon.validators.IS_JSON'>"
p316
sS'IS_IPADDRESS'
p317
S"<class 'gluon.validators.IS_IPADDRESS'>"
p318
sS'IS_SLUG'
p319
S"<class 'gluon.validators.IS_SLUG'>"
p320
sS'BEAUTIFY'
p321
S"<class 'gluon.html.BEAUTIFY'>"
p322
sS'META'
p323
S"<class 'gluon.html.META'>"
p324
sS'fetch'
p325
S'<function fetch>'
p326
sS'IS_DATE'
p327
S"<class 'gluon.validators.IS_DATE'>"
p328
sS'IS_EMAIL'
p329
S"<class 'gluon.validators.IS_EMAIL'>"
p330
sS'IS_NOT_EMPTY'
p331
S"<class 'gluon.validators.IS_NOT_EMPTY'>"
p332
sS'xrange'
p333
S"<type 'xrange'>"
p334
sS'TBODY'
p335
S"<class 'gluon.html.TBODY'>"
p336
sS'CAT'
p337
S"<class 'gluon.html.CAT'>"
p338
sS'Field'
p339
S"<class 'pydal.objects.Field'>"
p340
sS'IS_LIST_OF_EMAILS'
p341
S"<class 'gluon.validators.IS_LIST_OF_EMAILS'>"
p342
sg58
S"<Storage {'function': 'index', 'cookies': <Simpl...False, 'is_https': False, 'client': '127.0.0.1'}>"
p343
sS'Mail'
p344
S"<class 'gluon.tools.Mail'>"
p345
sS'DIV'
p346
S"<class 'gluon.html.DIV'>"
p347
sS'LEGEND'
p348
S"<class 'gluon.html.LEGEND'>"
p349
sS'to_native'
p350
S'<function to_native>'
p351
sS'COLGROUP'
p352
S"<class 'gluon.html.COLGROUP'>"
p353
sS'DAL'
p354
S"<class 'pydal.base.DAL'>"
p355
sS'ASSIGNJS'
p356
S'<function ASSIGNJS>'
p357
sS'TR'
p358
S"<class 'gluon.html.TR'>"
p359
sS'LI'
p360
S"<class 'gluon.html.LI'>"
p361
sS'TH'
p362
S"<class 'gluon.html.TH'>"
p363
sS'TD'
p364
S"<class 'gluon.html.TD'>"
p365
sS'PluginManager'
p366
S"<class 'gluon.tools.PluginManager'>"
p367
sS'IS_URL'
p368
S"<class 'gluon.validators.IS_URL'>"
p369
sS'A'
S"<class 'gluon.html.A'>"
p370
sS'HEAD'
p371
S"<class 'gluon.html.HEAD'>"
p372
sS'IS_DATETIME_IN_RANGE'
p373
S"<class 'gluon.validators.IS_DATETIME_IN_RANGE'>"
p374
sS'FORM'
p375
S"<class 'gluon.html.FORM'>"
p376
sS'I'
S"<class 'gluon.html.I'>"
p377
sS'crud'
p378
S'<gluon.tools.Crud object>'
p379
sS'IS_NOT_IN_DB'
p380
S"<class 'gluon.validators.IS_NOT_IN_DB'>"
p381
sg123
S"<Storage {'body': <cStringIO.StringO object at 0...> at 0x110b347d0>, 'view': 'default/index.html'}>"
p382
sS'THEAD'
p383
S"<class 'gluon.html.THEAD'>"
p384
sS'ANY_OF'
p385
S"<class 'gluon.validators.ANY_OF'>"
p386
sS'IS_NULL_OR'
p387
S"<class 'gluon.validators.IS_EMPTY_OR'>"
p388
sS'IS_FLOAT_IN_RANGE'
p389
S"<class 'gluon.validators.IS_FLOAT_IN_RANGE'>"
p390
sS'IS_EXPR'
p391
S"<class 'gluon.validators.IS_EXPR'>"
p392
sS'T'
S'<gluon.languages.translator object>'
p393
sS'IS_IN_SET'
p394
S"<class 'gluon.validators.IS_IN_SET'>"
p395
sS'IS_UPLOAD_FILENAME'
p396
S"<class 'gluon.validators.IS_UPLOAD_FILENAME'>"
p397
sS'TT'
p398
S"<class 'gluon.html.TT'>"
p399
sS'IS_DECIMAL_IN_RANGE'
p400
S"<class 'gluon.validators.IS_DECIMAL_IN_RANGE'>"
p401
sssS'traceback'
p402
S'Traceback (most recent call last):\n  File "/Users/bola/Desktop/web2py/gluon/restricted.py", line 219, in restricted\n    exec(ccode, environment)\n  File "/Users/bola/Desktop/web2py/applications/mywiki/views/default/index.html", line 127, in <module>\nNameError: name \'pages\' is not defined\n'
p403
s.